target datalayout = "e-m:e-p270:32:32-p271:32:32-p272:64:64-i64:64-i128:128-f80:128-n8:16:32:64-S128"
target triple = "x86_64-pc-linux-gnu"

%struct.strbuf = type { i64, i64, ptr }
%struct.notes_tree = type { ptr, ptr, ptr, ptr, ptr, ptr, i32, i32 }
%struct.object_id = type { [32 x i8], i32 }

@the_repository = external global ptr, align 8
@__const.commit_notes.buf = private unnamed_addr constant %struct.strbuf { i64 0, i64 0, ptr @strbuf_slopbuf }, align 8
@default_notes_tree = external global %struct.notes_tree, align 8
@.str.3 = private unnamed_addr constant [52 x i8] c"Cannot commit uninitialized/unreferenced notes tree\00", align 1
@.str.4 = private unnamed_addr constant [8 x i8] c"notes: \00", align 1

; Function Attrs: inlinehint nounwind uwtable
define internal i64 @strbuf_avail(ptr noundef %0) #4 {
  %2 = alloca ptr, align 8
  store ptr %0, ptr %2, align 8, !tbaa !34
  %3 = load ptr, ptr %2, align 8, !tbaa !34
  %4 = getelementptr inbounds nuw %struct.strbuf, ptr %3, i32 0, i32 0
  %5 = load i64, ptr %4, align 8, !tbaa !57
  %6 = icmp ne i64 %5, 0
  br i1 %6, label %7, label %16

7:                                                ; preds = %1
  %8 = load ptr, ptr %2, align 8, !tbaa !34
  %9 = getelementptr inbounds nuw %struct.strbuf, ptr %8, i32 0, i32 0
  %10 = load i64, ptr %9, align 8, !tbaa !57
  %11 = load ptr, ptr %2, align 8, !tbaa !34
  %12 = getelementptr inbounds nuw %struct.strbuf, ptr %11, i32 0, i32 1
  %13 = load i64, ptr %12, align 8, !tbaa !32
  %14 = sub i64 %10, %13
  %15 = sub i64 %14, 1
  br label %17

16:                                               ; preds = %1
  br label %17

17:                                               ; preds = %16, %7
  %18 = phi i64 [ %15, %7 ], [ 0, %16 ]
  ret i64 %18
}

; Function Attrs: inlinehint nounwind uwtable
define internal void @strbuf_addch(ptr noundef %0, i32 noundef %1) #4 {
  %3 = alloca ptr, align 8
  %4 = alloca i32, align 4
  store ptr %0, ptr %3, align 8, !tbaa !34
  store i32 %1, ptr %4, align 4, !tbaa !33
  %5 = load ptr, ptr %3, align 8, !tbaa !34
  %6 = call i64 @strbuf_avail(ptr noundef %5)
  %7 = icmp ne i64 %6, 0
  br i1 %7, label %10, label %8

8:                                                ; preds = %2
  %9 = load ptr, ptr %3, align 8, !tbaa !34
  call void @strbuf_grow(ptr noundef %9, i64 noundef 1)
  br label %10

10:                                               ; preds = %8, %2
  %11 = load i32, ptr %4, align 4, !tbaa !33
  %12 = trunc i32 %11 to i8
  %13 = load ptr, ptr %3, align 8, !tbaa !34
  %14 = getelementptr inbounds nuw %struct.strbuf, ptr %13, i32 0, i32 2
  %15 = load ptr, ptr %14, align 8, !tbaa !30
  %16 = load ptr, ptr %3, align 8, !tbaa !34
  %17 = getelementptr inbounds nuw %struct.strbuf, ptr %16, i32 0, i32 1
  %18 = load i64, ptr %17, align 8, !tbaa !32
  %19 = add i64 %18, 1
  store i64 %19, ptr %17, align 8, !tbaa !32
  %20 = getelementptr inbounds nuw i8, ptr %15, i64 %18
  store i8 %12, ptr %20, align 1, !tbaa !28
  %21 = load ptr, ptr %3, align 8, !tbaa !34
  %22 = getelementptr inbounds nuw %struct.strbuf, ptr %21, i32 0, i32 2
  %23 = load ptr, ptr %22, align 8, !tbaa !30
  %24 = load ptr, ptr %3, align 8, !tbaa !34
  %25 = getelementptr inbounds nuw %struct.strbuf, ptr %24, i32 0, i32 1
  %26 = load i64, ptr %25, align 8, !tbaa !32
  %27 = getelementptr inbounds nuw i8, ptr %23, i64 %26
  store i8 0, ptr %27, align 1, !tbaa !28
  ret void
}

; Function Attrs: inlinehint nounwind uwtable
define internal void @strbuf_complete(ptr noundef %0, i8 noundef signext %1) #4 {
  %3 = alloca ptr, align 8
  %4 = alloca i8, align 1
  store ptr %0, ptr %3, align 8, !tbaa !34
  store i8 %1, ptr %4, align 1, !tbaa !28
  %5 = load ptr, ptr %3, align 8, !tbaa !34
  %6 = getelementptr inbounds nuw %struct.strbuf, ptr %5, i32 0, i32 1
  %7 = load i64, ptr %6, align 8, !tbaa !32
  %8 = icmp ne i64 %7, 0
  br i1 %8, label %9, label %27

9:                                                ; preds = %2
  %10 = load ptr, ptr %3, align 8, !tbaa !34
  %11 = getelementptr inbounds nuw %struct.strbuf, ptr %10, i32 0, i32 2
  %12 = load ptr, ptr %11, align 8, !tbaa !30
  %13 = load ptr, ptr %3, align 8, !tbaa !34
  %14 = getelementptr inbounds nuw %struct.strbuf, ptr %13, i32 0, i32 1
  %15 = load i64, ptr %14, align 8, !tbaa !32
  %16 = sub i64 %15, 1
  %17 = getelementptr inbounds nuw i8, ptr %12, i64 %16
  %18 = load i8, ptr %17, align 1, !tbaa !28
  %19 = sext i8 %18 to i32
  %20 = load i8, ptr %4, align 1, !tbaa !28
  %21 = sext i8 %20 to i32
  %22 = icmp ne i32 %19, %21
  br i1 %22, label %23, label %27

23:                                               ; preds = %9
  %24 = load ptr, ptr %3, align 8, !tbaa !34
  %25 = load i8, ptr %4, align 1, !tbaa !28
  %26 = sext i8 %25 to i32
  call void @strbuf_addch(ptr noundef %24, i32 noundef %26)
  br label %27

27:                                               ; preds = %23, %9, %2
  ret void
}

; Function Attrs: inlinehint nounwind uwtable
define internal void @strbuf_insertstr(ptr noundef %0, i64 noundef %1, ptr noundef %2) #4 {
  %4 = alloca ptr, align 8
  %5 = alloca i64, align 8
  %6 = alloca ptr, align 8
  store ptr %0, ptr %4, align 8, !tbaa !34
  store i64 %1, ptr %5, align 8, !tbaa !15
  store ptr %2, ptr %6, align 8, !tbaa !13
  %7 = load ptr, ptr %4, align 8, !tbaa !34
  %8 = load i64, ptr %5, align 8, !tbaa !15
  %9 = load ptr, ptr %6, align 8, !tbaa !13
  %10 = load ptr, ptr %6, align 8, !tbaa !13
  %11 = call i64 @strlen(ptr noundef %10) #10
  call void @strbuf_insert(ptr noundef %7, i64 noundef %8, ptr noundef %9, i64 noundef %11)
  ret void
}

; Function Attrs: inlinehint nounwind uwtable
define internal void @strbuf_complete_line(ptr noundef %0) #4 {
  %2 = alloca ptr, align 8
  store ptr %0, ptr %2, align 8, !tbaa !34
  %3 = load ptr, ptr %2, align 8, !tbaa !34
  call void @strbuf_complete(ptr noundef %3, i8 noundef signext 10)
  ret void
}

; Function Attrs: inlinehint nounwind uwtable
define internal void @strbuf_addstr(ptr noundef %0, ptr noundef %1) #4 {
  %3 = alloca ptr, align 8
  %4 = alloca ptr, align 8
  store ptr %0, ptr %3, align 8, !tbaa !34
  store ptr %1, ptr %4, align 8, !tbaa !13
  %5 = load ptr, ptr %3, align 8, !tbaa !34
  %6 = load ptr, ptr %4, align 8, !tbaa !13
  %7 = load ptr, ptr %4, align 8, !tbaa !13
  %8 = call i64 @strlen(ptr noundef %7) #10
  call void @strbuf_add(ptr noundef %5, ptr noundef %6, i64 noundef %8)
  ret void
}

; Function Attrs: nounwind uwtable
define dso_local void @commit_notes(ptr noundef %0, ptr noundef %1, ptr noundef %2) #0 {
  %4 = alloca ptr, align 8
  %5 = alloca ptr, align 8
  %6 = alloca ptr, align 8
  %7 = alloca %struct.strbuf, align 8
  %8 = alloca %struct.object_id, align 4
  %9 = alloca i32, align 4
  store ptr %0, ptr %4, align 8, !tbaa !4
  store ptr %1, ptr %5, align 8, !tbaa !9
  store ptr %2, ptr %6, align 8, !tbaa !13
  call void @llvm.lifetime.start.p0(i64 24, ptr %7) #8
  call void @llvm.memcpy.p0.p0.i64(ptr align 8 %7, ptr align 8 @__const.commit_notes.buf, i64 24, i1 false)
  call void @llvm.lifetime.start.p0(i64 36, ptr %8) #8
  %10 = load ptr, ptr %5, align 8, !tbaa !9
  %11 = icmp ne ptr %10, null
  br i1 %11, label %13, label %12

12:                                               ; preds = %3
  store ptr @default_notes_tree, ptr %5, align 8, !tbaa !9
  br label %13

13:                                               ; preds = %12, %3
  %14 = load ptr, ptr %5, align 8, !tbaa !9
  %15 = getelementptr inbounds nuw %struct.notes_tree, ptr %14, i32 0, i32 6
  %16 = load i32, ptr %15, align 8, !tbaa !26
  %17 = icmp ne i32 %16, 0
  br i1 %17, label %18, label %29

18:                                               ; preds = %13
  %19 = load ptr, ptr %5, align 8, !tbaa !9
  %20 = getelementptr inbounds nuw %struct.notes_tree, ptr %19, i32 0, i32 4
  %21 = load ptr, ptr %20, align 8, !tbaa !27
  %22 = icmp ne ptr %21, null
  br i1 %22, label %23, label %29

23:                                               ; preds = %18
  %24 = load ptr, ptr %5, align 8, !tbaa !9
  %25 = getelementptr inbounds nuw %struct.notes_tree, ptr %24, i32 0, i32 4
  %26 = load ptr, ptr %25, align 8, !tbaa !27
  %27 = load i8, ptr %26, align 1, !tbaa !28
  %28 = icmp ne i8 %27, 0
  br i1 %28, label %31, label %29

29:                                               ; preds = %23, %18, %13
  %30 = call ptr @_(ptr noundef @.str.3)
  call void (ptr, ...) @die(ptr noundef %30) #9
  unreachable

31:                                               ; preds = %23
  %32 = load ptr, ptr %5, align 8, !tbaa !9
  %33 = getelementptr inbounds nuw %struct.notes_tree, ptr %32, i32 0, i32 7
  %34 = load i32, ptr %33, align 4, !tbaa !29
  %35 = icmp ne i32 %34, 0
  br i1 %35, label %37, label %36

36:                                               ; preds = %31
  store i32 1, ptr %9, align 4
  br label %53

37:                                               ; preds = %31
  %38 = load ptr, ptr %6, align 8, !tbaa !13
  call void @strbuf_addstr(ptr noundef %7, ptr noundef %38)
  call void @strbuf_complete_line(ptr noundef %7)
  %39 = load ptr, ptr %4, align 8, !tbaa !4
  %40 = load ptr, ptr %5, align 8, !tbaa !9
  %41 = getelementptr inbounds nuw %struct.strbuf, ptr %7, i32 0, i32 2
  %42 = load ptr, ptr %41, align 8, !tbaa !30
  %43 = getelementptr inbounds nuw %struct.strbuf, ptr %7, i32 0, i32 1
  %44 = load i64, ptr %43, align 8, !tbaa !32
  call void @create_notes_commit(ptr noundef %39, ptr noundef %40, ptr noundef null, ptr noundef %42, i64 noundef %44, ptr noundef %8)
  call void @strbuf_insertstr(ptr noundef %7, i64 noundef 0, ptr noundef @.str.4)
  %45 = load ptr, ptr @the_repository, align 8, !tbaa !4
  %46 = call ptr @get_main_ref_store(ptr noundef %45)
  %47 = getelementptr inbounds nuw %struct.strbuf, ptr %7, i32 0, i32 2
  %48 = load ptr, ptr %47, align 8, !tbaa !30
  %49 = load ptr, ptr %5, align 8, !tbaa !9
  %50 = getelementptr inbounds nuw %struct.notes_tree, ptr %49, i32 0, i32 4
  %51 = load ptr, ptr %50, align 8, !tbaa !27
  %52 = call i32 @refs_update_ref(ptr noundef %46, ptr noundef %48, ptr noundef %51, ptr noundef %8, ptr noundef null, i32 noundef 0, i32 noundef 1)
  call void @strbuf_release(ptr noundef %7)
  store i32 0, ptr %9, align 4
  br label %53

53:                                               ; preds = %37, %36
  call void @llvm.lifetime.end.p0(i64 36, ptr %8) #8
  call void @llvm.lifetime.end.p0(i64 24, ptr %7) #8
  %54 = load i32, ptr %9, align 4
  switch i32 %54, label %56 [
    i32 0, label %55
    i32 1, label %55
  ]

55:                                               ; preds = %53, %53
  ret void

56:                                               ; preds = %53
  unreachable
}