; Function Attrs: nounwind uwtable
define dso_local void @commit_notes(ptr noundef %0, ptr noundef %1, ptr noundef %2) local_unnamed_addr #0 {
  %4 = alloca %struct.strbuf, align 8
  %5 = alloca %struct.object_id, align 4
  call void @llvm.lifetime.start.p0(i64 24, ptr nonnull %4) #12
  call void @llvm.memcpy.p0.p0.i64(ptr noundef nonnull align 8 dereferenceable(24) %4, ptr noundef nonnull align 8 dereferenceable(24) @__const.commit_notes.buf, i64 24, i1 false)
  call void @llvm.lifetime.start.p0(i64 36, ptr nonnull %5) #12
  %.not = icmp eq ptr %1, null
  %spec.store.select = select i1 %.not, ptr @default_notes_tree, ptr %1
  %6 = getelementptr inbounds nuw i8, ptr %spec.store.select, i64 48
  %7 = load i32, ptr %6, align 8, !tbaa !17
  %.not9 = icmp eq i32 %7, 0
  br i1 %.not9, label %13, label %8

8:                                                ; preds = %3
  %9 = getelementptr inbounds nuw i8, ptr %spec.store.select, i64 32
  %10 = load ptr, ptr %9, align 8, !tbaa !18
  %.not10 = icmp eq ptr %10, null
  br i1 %.not10, label %13, label %11

11:                                               ; preds = %8
  %12 = load i8, ptr %10, align 1, !tbaa !19
  %.not11 = icmp eq i8 %12, 0
  br i1 %.not11, label %13, label %15

13:                                               ; preds = %11, %8, %3
  %14 = tail call fastcc ptr @_(ptr noundef nonnull @.str.3)
  tail call void (ptr, ...) @die(ptr noundef %14) #13
  unreachable

15:                                               ; preds = %11
  %16 = getelementptr inbounds nuw i8, ptr %spec.store.select, i64 52
  %17 = load i32, ptr %16, align 4, !tbaa !20
  %.not12 = icmp eq i32 %17, 0
  br i1 %.not12, label %44, label %18

18:                                               ; preds = %15
  %19 = tail call i64 @strlen(ptr noundef nonnull dereferenceable(1) %2) #14
  call void @strbuf_add(ptr noundef nonnull %4, ptr noundef nonnull %2, i64 noundef %19) #12
  %20 = getelementptr inbounds nuw i8, ptr %4, i64 8
  %21 = load i64, ptr %20, align 8, !tbaa !21
  %.not.i.i = icmp eq i64 %21, 0
  br i1 %.not.i.i, label %strbuf_complete_line.exit, label %22

22:                                               ; preds = %18
  %23 = getelementptr inbounds nuw i8, ptr %4, i64 16
  %24 = load ptr, ptr %23, align 8, !tbaa !24
  %25 = getelementptr i8, ptr %24, i64 %21
  %26 = getelementptr i8, ptr %25, i64 -1
  %27 = load i8, ptr %26, align 1, !tbaa !19
  %.not6.i.i = icmp eq i8 %27, 10
  br i1 %.not6.i.i, label %strbuf_complete_line.exit, label %28

28:                                               ; preds = %22
  %29 = load i64, ptr %4, align 8, !tbaa !25
  %.not.i.i.i.i = icmp eq i64 %29, 0
  %.neg.i.i.i = add i64 %21, 1
  %.not.i.i.i = icmp eq i64 %29, %.neg.i.i.i
  %or.cond.i.i = or i1 %.not.i.i.i.i, %.not.i.i.i
  br i1 %or.cond.i.i, label %strbuf_avail.exit.thread.i.i.i, label %strbuf_addch.exit.i.i

strbuf_avail.exit.thread.i.i.i:                   ; preds = %28
  call void @strbuf_grow(ptr noundef nonnull %4, i64 noundef 1) #12
  %.pre.i.i.i = load i64, ptr %20, align 8, !tbaa !21
  %.pre7.i.i.i = add i64 %.pre.i.i.i, 1
  %.pre.i.i = load ptr, ptr %23, align 8, !tbaa !24
  br label %strbuf_addch.exit.i.i

strbuf_addch.exit.i.i:                            ; preds = %strbuf_avail.exit.thread.i.i.i, %28
  %30 = phi ptr [ %.pre.i.i, %strbuf_avail.exit.thread.i.i.i ], [ %24, %28 ]
  %.pre-phi.i.i.i = phi i64 [ %.pre7.i.i.i, %strbuf_avail.exit.thread.i.i.i ], [ %.neg.i.i.i, %28 ]
  %31 = phi i64 [ %.pre.i.i.i, %strbuf_avail.exit.thread.i.i.i ], [ %21, %28 ]
  store i64 %.pre-phi.i.i.i, ptr %20, align 8, !tbaa !21
  %32 = getelementptr inbounds nuw i8, ptr %30, i64 %31
  store i8 10, ptr %32, align 1, !tbaa !19
  %33 = load ptr, ptr %23, align 8, !tbaa !24
  %34 = load i64, ptr %20, align 8, !tbaa !21
  %35 = getelementptr inbounds nuw i8, ptr %33, i64 %34
  store i8 0, ptr %35, align 1, !tbaa !19
  %.pre = load i64, ptr %20, align 8, !tbaa !21
  br label %strbuf_complete_line.exit

strbuf_complete_line.exit:                        ; preds = %18, %22, %strbuf_addch.exit.i.i
  %36 = phi i64 [ 0, %18 ], [ %21, %22 ], [ %.pre, %strbuf_addch.exit.i.i ]
  %37 = getelementptr inbounds nuw i8, ptr %4, i64 16
  %38 = load ptr, ptr %37, align 8, !tbaa !24
  call void @create_notes_commit(ptr noundef %0, ptr noundef nonnull %spec.store.select, ptr noundef null, ptr noundef %38, i64 noundef %36, ptr noundef nonnull %5)
  call void @strbuf_insert(ptr noundef nonnull %4, i64 noundef 0, ptr noundef nonnull @.str.4, i64 noundef 7) #12
  %39 = load ptr, ptr @the_repository, align 8, !tbaa !9
  %40 = call ptr @get_main_ref_store(ptr noundef %39) #12
  %41 = load ptr, ptr %37, align 8, !tbaa !24
  %42 = load ptr, ptr %9, align 8, !tbaa !18
  %43 = call i32 @refs_update_ref(ptr noundef %40, ptr noundef %41, ptr noundef %42, ptr noundef nonnull %5, ptr noundef null, i32 noundef 0, i32 noundef 1) #12
  call void @strbuf_release(ptr noundef nonnull %4) #12
  br label %44

44:                                               ; preds = %15, %strbuf_complete_line.exit
  call void @llvm.lifetime.end.p0(i64 36, ptr nonnull %5) #12
  call void @llvm.lifetime.end.p0(i64 24, ptr nonnull %4) #12
  ret void
}